; Function Attrs: nounwind uwtable
define i32 @pmix_mca_base_var_register_synonym(i32 noundef %0, ptr noundef %1, ptr noundef %2, ptr noundef %3, ptr noundef %4, i32 noundef %5) local_unnamed_addr #0 {
  %7 = load i8, ptr @pmix_mca_base_var_initialized, align 1, !tbaa !54, !range !36, !noundef !37
  %8 = trunc nuw i8 %7 to i1
  br i1 %8, label %9, label %var_get.exit.thread

9:                                                ; preds = %6
  %10 = icmp slt i32 %0, 0
  %11 = load i32, ptr getelementptr inbounds nuw (i8, ptr @pmix_mca_base_vars, i64 128), align 8
  %12 = icmp sle i32 %11, %0
  %or.cond.i = select i1 %10, i1 true, i1 %12
  br i1 %or.cond.i, label %var_get.exit.thread, label %pmix_pointer_array_get_item.exit.i, !prof !63

pmix_pointer_array_get_item.exit.i:               ; preds = %9
  %13 = load ptr, ptr getelementptr inbounds nuw (i8, ptr @pmix_mca_base_vars, i64 152), align 8, !tbaa !58
  %14 = zext nneg i32 %0 to i64
  %15 = getelementptr inbounds nuw ptr, ptr %13, i64 %14
  %16 = load ptr, ptr %15, align 8, !tbaa !22
  %17 = icmp eq ptr %16, null
  br i1 %17, label %var_get.exit.thread, label %18

18:                                               ; preds = %pmix_pointer_array_get_item.exit.i
  %19 = getelementptr inbounds nuw i8, ptr %16, i64 320
  %20 = load i32, ptr %19, align 8, !tbaa !61
  %21 = and i32 %20, 131072
  %.not11 = icmp eq i32 %21, 0
  br i1 %.not11, label %22, label %var_get.exit.thread

22:                                               ; preds = %18
  %23 = and i32 %5, 1
  %.not12 = icmp eq i32 %23, 0
  %spec.select = select i1 %.not12, i32 131072, i32 131080
  %24 = getelementptr inbounds nuw i8, ptr %16, i64 336
  %25 = load ptr, ptr %24, align 8, !tbaa !45
  %26 = getelementptr inbounds nuw i8, ptr %16, i64 128
  %27 = load i32, ptr %26, align 8, !tbaa !3
  %28 = tail call fastcc i32 @register_variable(ptr noundef %1, ptr noundef %2, ptr noundef %3, ptr noundef %4, ptr noundef %25, i32 noundef %27, i32 noundef %spec.select, i32 noundef %0, ptr noundef null)
  br label %var_get.exit.thread

var_get.exit.thread:                              ; preds = %pmix_pointer_array_get_item.exit.i, %9, %6, %18, %22
  %.0 = phi i32 [ %28, %22 ], [ -27, %18 ], [ -27, %6 ], [ -27, %9 ], [ -27, %pmix_pointer_array_get_item.exit.i ]
  ret i32 %.0
}